ccopy_reg
_reconstructor
p0
(cgoogle.oauth2.credentials
Credentials
p1
c__builtin__
object
p2
Ntp3
Rp4
(dp5
S'_quota_project_id'
p6
NsS'_token_uri'
p7
Vhttps://oauth2.googleapis.com/token
p8
sS'_client_secret'
p9
VdmHS251oIackLpVBxAKw8pkf
p10
sS'_id_token'
p11
NsS'token'
p12
Vya29.a0AfH6SMAloP7pzZEuVJ0NpjzQSZVNR5BHCvEkag32vkQHEhp2fgGc4oI_r77f82W2xQi12XAbMu3o8Yp5xFWr6CeiKRT3C_2Wy7LufXVtYdkm6CFUTykndKb3SBHDDfHDk2gCKQLny3Gbd3uhJ3YTFHwZG4BuNUYn8uhGNNukl2M
p13
sS'_refresh_token'
p14
V1//0gjXtOBYbRgHTCgYIARAAGBASNwF-L9Ir75OSrw7FXhAp-H51Q4P2KdgS5-gkB29s-WCK0geCc5tyRnygTcPKnS3MkvACpmf_93M
p15
sS'_scopes'
p16
(lp17
S'https://www.googleapis.com/auth/drive'
p18
aS'https://www.googleapis.com/auth/cloud-platform'
p19
aS'https://www.googleapis.com/auth/iam'
p20
asS'_client_id'
p21
V909208571919-pg6arjm2f4cv7ur5t23c95orc74fe4mc.apps.googleusercontent.com
p22
sS'expiry'
p23
cdatetime
datetime
p24
(S'\x07\xe5\x01\x07\x06\x0b\x0c\x05\xa4\xf4'
p25
tp26
Rp27
sb.